; Function Attrs: nounwind uwtable
define i32 @ffurl_shutdown(ptr noundef %0, i32 noundef %1) local_unnamed_addr #3 {
  %.not = icmp eq ptr %0, null
  br i1 %.not, label %11, label %3

3:                                                ; preds = %2
  %4 = getelementptr inbounds nuw i8, ptr %0, i64 8
  %5 = load ptr, ptr %4, align 8, !tbaa !21
  %.not9 = icmp eq ptr %5, null
  br i1 %.not9, label %11, label %6

6:                                                ; preds = %3
  %7 = getelementptr inbounds nuw i8, ptr %5, i64 112
  %8 = load ptr, ptr %7, align 8, !tbaa !105
  %.not10 = icmp eq ptr %8, null
  br i1 %.not10, label %11, label %9

9:                                                ; preds = %6
  %10 = tail call i32 %8(ptr noundef nonnull %0, i32 noundef %1) #12
  br label %11

11:                                               ; preds = %2, %3, %6, %9
  %.0 = phi i32 [ %10, %9 ], [ -38, %6 ], [ -38, %3 ], [ -38, %2 ]
  ret i32 %.0
}